target datalayout = "e-m:e-p270:32:32-p271:32:32-p272:64:64-i64:64-i128:128-f80:128-n8:16:32:64-S128"
target triple = "x86_64-pc-linux-gnu"

%"class.icu_77::FormattedValueFieldPositionIteratorImpl" = type { %"class.icu_77::FormattedValue", %"class.icu_77::UnicodeString", %"class.icu_77::UVector32" }
%"class.icu_77::FormattedValue" = type { ptr }
%"class.icu_77::UnicodeString" = type { %"class.icu_77::Replaceable", %"union.icu_77::UnicodeString::StackBufferOrFields" }
%"class.icu_77::Replaceable" = type { %"class.icu_77::UObject" }
%"class.icu_77::UObject" = type { ptr }
%"union.icu_77::UnicodeString::StackBufferOrFields" = type { %struct.anon.0, [32 x i8] }
%struct.anon.0 = type { i16, i32, i32, ptr }
%"class.icu_77::UVector32" = type { %"class.icu_77::UObject", i32, i32, i32, ptr }

; Function Attrs: mustprogress nounwind uwtable
define void @_ZN6icu_7739FormattedValueFieldPositionIteratorImplD2Ev(ptr noundef nonnull align 8 dereferenceable(104) %0) unnamed_addr #0 align 2 {
  %2 = alloca ptr, align 8
  store ptr %0, ptr %2, align 8, !tbaa !23
  %3 = load ptr, ptr %2, align 8
  store ptr getelementptr inbounds inrange(-16, 48) ({ [8 x ptr] }, ptr @_ZTVN6icu_7739FormattedValueFieldPositionIteratorImplE, i32 0, i32 0, i32 2), ptr %3, align 8, !tbaa !25
  %4 = getelementptr inbounds nuw %"class.icu_77::FormattedValueFieldPositionIteratorImpl", ptr %3, i32 0, i32 2
  call void @_ZN6icu_779UVector32D1Ev(ptr noundef nonnull align 8 dereferenceable(32) %4) #10
  %5 = getelementptr inbounds nuw %"class.icu_77::FormattedValueFieldPositionIteratorImpl", ptr %3, i32 0, i32 1
  call void @_ZN6icu_7713UnicodeStringD1Ev(ptr noundef nonnull align 8 dereferenceable(64) %5) #10
  call void @_ZN6icu_7714FormattedValueD2Ev(ptr noundef nonnull align 8 dereferenceable(8) %3) #10
  ret void
}